; Function Attrs: mustprogress uwtable
define hidden noundef nonnull ptr @_ZN10duckdb_re214SimplifyWalker7Concat2EPNS_6RegexpES2_NS1_10ParseFlagsE(ptr noundef %0, ptr noundef %1, i32 noundef %2) local_unnamed_addr #0 align 2 personality ptr @__gxx_personality_v0 {
  %4 = tail call noalias noundef nonnull dereferenceable(40) ptr @_Znwm(i64 noundef 40) #19
  invoke void @_ZN10duckdb_re26RegexpC1ENS_8RegexpOpENS0_10ParseFlagsE(ptr noundef nonnull align 8 dereferenceable(40) %4, i32 noundef 5, i32 noundef %2)
          to label %5 unwind label %10

5:                                                ; preds = %3
  %6 = tail call noalias noundef nonnull dereferenceable(16) ptr @_Znam(i64 noundef 16) #19
  %7 = getelementptr inbounds nuw i8, ptr %4, i64 8
  store ptr %6, ptr %7, align 8, !tbaa !21
  %8 = getelementptr inbounds nuw i8, ptr %4, i64 6
  store i16 2, ptr %8, align 2, !tbaa !49
  store ptr %0, ptr %6, align 8, !tbaa !50
  %9 = getelementptr inbounds nuw i8, ptr %6, i64 8
  store ptr %1, ptr %9, align 8, !tbaa !50
  ret ptr %4

10:                                               ; preds = %3
  %11 = landingpad { ptr, i32 }
          cleanup
  tail call void @_ZdlPv(ptr noundef nonnull %4) #17
  resume { ptr, i32 } %11
}